target datalayout = "e-m:e-p270:32:32-p271:32:32-p272:64:64-i64:64-i128:128-f80:128-n8:16:32:64-S128"
target triple = "x86_64-pc-linux-gnu"

%class.File = type { ptr, i64, i8, i32, i8, i8, i32, i8, i8, i8, i8, i8, i64, i8, [2048 x i32], i32, ptr }

@_ZTV4File = unnamed_addr constant { [10 x ptr] } { [10 x ptr] [ptr null, ptr @_ZTI4File, ptr @_ZN4FileD1Ev, ptr @_ZN4FileD0Ev, ptr @_ZN4File4OpenEPKwj, ptr @_ZN4File5CloseEv, ptr @_ZN4File4ReadEPvm, ptr @_ZN4File4SeekEli, ptr @_ZN4File4TellEv, ptr @_ZN4File8IsOpenedEv] }, align 8

; Function Attrs: mustprogress uwtable
define noundef zeroext i1 @_ZN4File6DeleteEv(ptr noundef nonnull align 8 dereferenceable(8256) %0) #1 align 2 {
  %2 = alloca i1, align 1
  %3 = alloca ptr, align 8
  store ptr %0, ptr %3, align 8
  %4 = load ptr, ptr %3, align 8
  %5 = getelementptr inbounds %class.File, ptr %4, i32 0, i32 3
  %6 = load i32, ptr %5, align 4
  %7 = icmp ne i32 %6, 0
  br i1 %7, label %8, label %9

8:                                                ; preds = %1
  store i1 false, ptr %2, align 1
  br label %27

9:                                                ; preds = %1
  %10 = getelementptr inbounds %class.File, ptr %4, i32 0, i32 1
  %11 = load i64, ptr %10, align 8
  %12 = icmp ne i64 %11, -1
  br i1 %12, label %13, label %18

13:                                               ; preds = %9
  %14 = load ptr, ptr %4, align 8
  %15 = getelementptr inbounds ptr, ptr %14, i64 3
  %16 = load ptr, ptr %15, align 8
  %17 = call noundef zeroext i1 %16(ptr noundef nonnull align 8 dereferenceable(8256) %4)
  br label %18

18:                                               ; preds = %13, %9
  %19 = getelementptr inbounds %class.File, ptr %4, i32 0, i32 8
  %20 = load i8, ptr %19, align 1
  %21 = trunc i8 %20 to i1
  br i1 %21, label %23, label %22

22:                                               ; preds = %18
  store i1 false, ptr %2, align 1
  br label %27

23:                                               ; preds = %18
  %24 = getelementptr inbounds %class.File, ptr %4, i32 0, i32 14
  %25 = getelementptr inbounds [2048 x i32], ptr %24, i64 0, i64 0
  %26 = call noundef zeroext i1 @_Z7DelFilePKw(ptr noundef %25)
  store i1 %26, ptr %2, align 1
  br label %27

27:                                               ; preds = %23, %22, %8
  %28 = load i1, ptr %2, align 1
  ret i1 %28
}

; Function Attrs: mustprogress nounwind uwtable
define void @_ZN4FileD2Ev(ptr noundef nonnull align 8 dereferenceable(8256) %0) unnamed_addr #0 align 2 personality ptr @__gxx_personality_v0 {
  %2 = alloca ptr, align 8
  store ptr %0, ptr %2, align 8
  %3 = load ptr, ptr %2, align 8
  store ptr getelementptr inbounds inrange(-16, 64) ({ [10 x ptr] }, ptr @_ZTV4File, i32 0, i32 0, i32 2), ptr %3, align 8
  %4 = getelementptr inbounds %class.File, ptr %3, i32 0, i32 1
  %5 = load i64, ptr %4, align 8
  %6 = icmp ne i64 %5, -1
  br i1 %6, label %7, label %25

7:                                                ; preds = %1
  %8 = getelementptr inbounds %class.File, ptr %3, i32 0, i32 5
  %9 = load i8, ptr %8, align 1
  %10 = trunc i8 %9 to i1
  br i1 %10, label %25, label %11

11:                                               ; preds = %7
  %12 = getelementptr inbounds %class.File, ptr %3, i32 0, i32 7
  %13 = load i8, ptr %12, align 8
  %14 = trunc i8 %13 to i1
  br i1 %14, label %15, label %18

15:                                               ; preds = %11
  %16 = invoke noundef zeroext i1 @_ZN4File6DeleteEv(ptr noundef nonnull align 8 dereferenceable(8256) %3)
          to label %17 unwind label %26

17:                                               ; preds = %15
  br label %24

18:                                               ; preds = %11
  %19 = load ptr, ptr %3, align 8
  %20 = getelementptr inbounds ptr, ptr %19, i64 3
  %21 = load ptr, ptr %20, align 8
  %22 = invoke noundef zeroext i1 %21(ptr noundef nonnull align 8 dereferenceable(8256) %3)
          to label %23 unwind label %26

23:                                               ; preds = %18
  br label %24

24:                                               ; preds = %23, %17
  br label %25

25:                                               ; preds = %24, %7, %1
  ret void

26:                                               ; preds = %18, %15
  %27 = landingpad { ptr, i32 }
          catch ptr null
  %28 = extractvalue { ptr, i32 } %27, 0
  call void @__clang_call_terminate(ptr %28) #9
  unreachable
}