; Function Attrs: mustprogress nounwind uwtable
define void @_ZN4FileD2Ev(ptr noundef nonnull align 8 dereferenceable(8256) %0) unnamed_addr #1 align 2 personality ptr @__gxx_personality_v0 {
  store ptr getelementptr inbounds inrange(-16, 64) ({ [10 x ptr] }, ptr @_ZTV4File, i64 0, i32 0, i64 2), ptr %0, align 8
  %2 = getelementptr inbounds i8, ptr %0, i64 8
  %3 = load i64, ptr %2, align 8
  %.not = icmp eq i64 %3, -1
  br i1 %.not, label %_ZN4File6DeleteEv.exit, label %4

4:                                                ; preds = %1
  %5 = getelementptr inbounds i8, ptr %0, i64 25
  %6 = load i8, ptr %5, align 1
  %7 = trunc i8 %6 to i1
  br i1 %7, label %_ZN4File6DeleteEv.exit, label %8

8:                                                ; preds = %4
  %9 = getelementptr inbounds i8, ptr %0, i64 32
  %10 = load i8, ptr %9, align 8
  %11 = trunc i8 %10 to i1
  br i1 %11, label %12, label %30

12:                                               ; preds = %8
  %13 = getelementptr inbounds i8, ptr %0, i64 20
  %14 = load i32, ptr %13, align 4
  %.not.i = icmp eq i32 %14, 0
  br i1 %.not.i, label %15, label %_ZN4File6DeleteEv.exit

15:                                               ; preds = %12
  %16 = trunc i64 %3 to i32
  %17 = invoke i32 @close(i32 noundef %16)
          to label %.noexc7 unwind label %40

.noexc7:                                          ; preds = %15
  %.not7.i6 = icmp eq i32 %17, -1
  store i64 -1, ptr %2, align 8
  store i32 0, ptr %13, align 4
  br i1 %.not7.i6, label %18, label %.noexc

18:                                               ; preds = %.noexc7
  %19 = getelementptr inbounds i8, ptr %0, i64 34
  %20 = load i8, ptr %19, align 2
  %21 = trunc i8 %20 to i1
  br i1 %21, label %22, label %.noexc

22:                                               ; preds = %18
  %23 = getelementptr inbounds i8, ptr %0, i64 52
  invoke void @_ZN12ErrorHandler10CloseErrorEPKw(ptr noundef nonnull align 4 dereferenceable(14) @ErrHandler, ptr noundef nonnull %23)
          to label %.noexc unwind label %40

.noexc:                                           ; preds = %18, %.noexc7, %22
  %24 = getelementptr inbounds i8, ptr %0, i64 33
  %25 = load i8, ptr %24, align 1
  %26 = trunc i8 %25 to i1
  br i1 %26, label %27, label %_ZN4File6DeleteEv.exit

27:                                               ; preds = %.noexc
  %28 = getelementptr inbounds i8, ptr %0, i64 52
  %29 = invoke noundef zeroext i1 @_Z7DelFilePKw(ptr noundef nonnull %28)
          to label %_ZN4File6DeleteEv.exit unwind label %40

30:                                               ; preds = %8
  %31 = trunc i64 %3 to i32
  %32 = invoke i32 @close(i32 noundef %31)
          to label %.noexc3 unwind label %40

.noexc3:                                          ; preds = %30
  %.not7.i = icmp eq i32 %32, -1
  store i64 -1, ptr %2, align 8
  %33 = getelementptr inbounds i8, ptr %0, i64 20
  store i32 0, ptr %33, align 4
  br i1 %.not7.i, label %34, label %_ZN4File6DeleteEv.exit

34:                                               ; preds = %.noexc3
  %35 = getelementptr inbounds i8, ptr %0, i64 34
  %36 = load i8, ptr %35, align 2
  %37 = trunc i8 %36 to i1
  br i1 %37, label %38, label %_ZN4File6DeleteEv.exit

38:                                               ; preds = %34
  %39 = getelementptr inbounds i8, ptr %0, i64 52
  invoke void @_ZN12ErrorHandler10CloseErrorEPKw(ptr noundef nonnull align 4 dereferenceable(14) @ErrHandler, ptr noundef nonnull %39)
          to label %_ZN4File6DeleteEv.exit unwind label %40

_ZN4File6DeleteEv.exit:                           ; preds = %34, %.noexc3, %38, %.noexc, %12, %27, %4, %1
  ret void

40:                                               ; preds = %22, %15, %38, %30, %27
  %41 = landingpad { ptr, i32 }
          catch ptr null
  %42 = extractvalue { ptr, i32 } %41, 0
  tail call void @__clang_call_terminate(ptr %42) #17
  unreachable
}